target datalayout = "e-m:e-p270:32:32-p271:32:32-p272:64:64-i64:64-i128:128-f80:128-n8:16:32:64-S128"
target triple = "x86_64-pc-linux-gnu"

%"class.cv::structured_light::SinusoidalPatternProfilometry_Impl::Marker" = type { %"class.cv::Point_", %"class.cv::Point_", %"class.cv::Point_", %"class.cv::Point_", %"class.cv::Point_" }
%"class.cv::Point_" = type { i32, i32 }

; Function Attrs: inlinehint mustprogress nounwind uwtable
define linkonce_odr hidden void @_ZN2cv6Point_IiEC2Ev(ptr noundef nonnull align 4 dereferenceable(8) %0) unnamed_addr #6 comdat align 2 {
  %2 = alloca ptr, align 8
  store ptr %0, ptr %2, align 8, !tbaa !29
  %3 = load ptr, ptr %2, align 8
  %4 = getelementptr inbounds nuw %"class.cv::Point_", ptr %3, i32 0, i32 0
  store i32 0, ptr %4, align 4, !tbaa !31
  %5 = getelementptr inbounds nuw %"class.cv::Point_", ptr %3, i32 0, i32 1
  store i32 0, ptr %5, align 4, !tbaa !33
  ret void
}

; Function Attrs: mustprogress uwtable
define void @_ZN2cv16structured_light34SinusoidalPatternProfilometry_Impl6MarkerC2ENS_6Point_IiEE(ptr noundef nonnull align 4 dereferenceable(40) %0, i64 %1) unnamed_addr #5 align 2 {
  %3 = alloca %"class.cv::Point_", align 4
  %4 = alloca ptr, align 8
  store i64 %1, ptr %3, align 4
  store ptr %0, ptr %4, align 8, !tbaa !27
  %5 = load ptr, ptr %4, align 8
  %6 = getelementptr inbounds nuw %"class.cv::structured_light::SinusoidalPatternProfilometry_Impl::Marker", ptr %5, i32 0, i32 0
  call void @_ZN2cv6Point_IiEC2Ev(ptr noundef nonnull align 4 dereferenceable(8) %6)
  %7 = getelementptr inbounds nuw %"class.cv::structured_light::SinusoidalPatternProfilometry_Impl::Marker", ptr %5, i32 0, i32 1
  call void @_ZN2cv6Point_IiEC2Ev(ptr noundef nonnull align 4 dereferenceable(8) %7)
  %8 = getelementptr inbounds nuw %"class.cv::structured_light::SinusoidalPatternProfilometry_Impl::Marker", ptr %5, i32 0, i32 2
  call void @_ZN2cv6Point_IiEC2Ev(ptr noundef nonnull align 4 dereferenceable(8) %8)
  %9 = getelementptr inbounds nuw %"class.cv::structured_light::SinusoidalPatternProfilometry_Impl::Marker", ptr %5, i32 0, i32 3
  call void @_ZN2cv6Point_IiEC2Ev(ptr noundef nonnull align 4 dereferenceable(8) %9)
  %10 = getelementptr inbounds nuw %"class.cv::structured_light::SinusoidalPatternProfilometry_Impl::Marker", ptr %5, i32 0, i32 4
  call void @_ZN2cv6Point_IiEC2Ev(ptr noundef nonnull align 4 dereferenceable(8) %10)
  %11 = getelementptr inbounds nuw %"class.cv::structured_light::SinusoidalPatternProfilometry_Impl::Marker", ptr %5, i32 0, i32 0
  call void @llvm.memcpy.p0.p0.i64(ptr align 4 %11, ptr align 4 %3, i64 8, i1 false), !tbaa.struct !34
  %12 = getelementptr inbounds nuw %"class.cv::Point_", ptr %3, i32 0, i32 0
  %13 = load i32, ptr %12, align 4, !tbaa !31
  %14 = getelementptr inbounds nuw %"class.cv::structured_light::SinusoidalPatternProfilometry_Impl::Marker", ptr %5, i32 0, i32 1
  %15 = getelementptr inbounds nuw %"class.cv::Point_", ptr %14, i32 0, i32 0
  store i32 %13, ptr %15, align 4, !tbaa !36
  %16 = getelementptr inbounds nuw %"class.cv::Point_", ptr %3, i32 0, i32 1
  %17 = load i32, ptr %16, align 4, !tbaa !33
  %18 = sub nsw i32 %17, 1
  %19 = getelementptr inbounds nuw %"class.cv::structured_light::SinusoidalPatternProfilometry_Impl::Marker", ptr %5, i32 0, i32 1
  %20 = getelementptr inbounds nuw %"class.cv::Point_", ptr %19, i32 0, i32 1
  store i32 %18, ptr %20, align 4, !tbaa !38
  %21 = getelementptr inbounds nuw %"class.cv::Point_", ptr %3, i32 0, i32 0
  %22 = load i32, ptr %21, align 4, !tbaa !31
  %23 = sub nsw i32 %22, 1
  %24 = getelementptr inbounds nuw %"class.cv::structured_light::SinusoidalPatternProfilometry_Impl::Marker", ptr %5, i32 0, i32 3
  %25 = getelementptr inbounds nuw %"class.cv::Point_", ptr %24, i32 0, i32 0
  store i32 %23, ptr %25, align 4, !tbaa !39
  %26 = getelementptr inbounds nuw %"class.cv::Point_", ptr %3, i32 0, i32 1
  %27 = load i32, ptr %26, align 4, !tbaa !33
  %28 = getelementptr inbounds nuw %"class.cv::structured_light::SinusoidalPatternProfilometry_Impl::Marker", ptr %5, i32 0, i32 3
  %29 = getelementptr inbounds nuw %"class.cv::Point_", ptr %28, i32 0, i32 1
  store i32 %27, ptr %29, align 4, !tbaa !40
  %30 = getelementptr inbounds nuw %"class.cv::Point_", ptr %3, i32 0, i32 0
  %31 = load i32, ptr %30, align 4, !tbaa !31
  %32 = getelementptr inbounds nuw %"class.cv::structured_light::SinusoidalPatternProfilometry_Impl::Marker", ptr %5, i32 0, i32 4
  %33 = getelementptr inbounds nuw %"class.cv::Point_", ptr %32, i32 0, i32 0
  store i32 %31, ptr %33, align 4, !tbaa !41
  %34 = getelementptr inbounds nuw %"class.cv::Point_", ptr %3, i32 0, i32 1
  %35 = load i32, ptr %34, align 4, !tbaa !33
  %36 = add nsw i32 %35, 1
  %37 = getelementptr inbounds nuw %"class.cv::structured_light::SinusoidalPatternProfilometry_Impl::Marker", ptr %5, i32 0, i32 4
  %38 = getelementptr inbounds nuw %"class.cv::Point_", ptr %37, i32 0, i32 1
  store i32 %36, ptr %38, align 4, !tbaa !42
  %39 = getelementptr inbounds nuw %"class.cv::Point_", ptr %3, i32 0, i32 0
  %40 = load i32, ptr %39, align 4, !tbaa !31
  %41 = add nsw i32 %40, 1
  %42 = getelementptr inbounds nuw %"class.cv::structured_light::SinusoidalPatternProfilometry_Impl::Marker", ptr %5, i32 0, i32 2
  %43 = getelementptr inbounds nuw %"class.cv::Point_", ptr %42, i32 0, i32 0
  store i32 %41, ptr %43, align 4, !tbaa !43
  %44 = getelementptr inbounds nuw %"class.cv::Point_", ptr %3, i32 0, i32 1
  %45 = load i32, ptr %44, align 4, !tbaa !33
  %46 = getelementptr inbounds nuw %"class.cv::structured_light::SinusoidalPatternProfilometry_Impl::Marker", ptr %5, i32 0, i32 2
  %47 = getelementptr inbounds nuw %"class.cv::Point_", ptr %46, i32 0, i32 1
  store i32 %45, ptr %47, align 4, !tbaa !44
  ret void
}