; Function Attrs: mustprogress nofree norecurse nosync nounwind willreturn memory(argmem: write) uwtable
define void @_ZN2cv16structured_light34SinusoidalPatternProfilometry_Impl6MarkerC2ENS_6Point_IiEE(ptr noundef nonnull writeonly align 4 captures(none) dereferenceable(40) initializes((0, 40)) %0, i64 %1) unnamed_addr #3 align 2 {
  %.sroa.0.0.extract.trunc = trunc i64 %1 to i32
  %.sroa.6.0.extract.shift = lshr i64 %1, 32
  %.sroa.6.0.extract.trunc = trunc nuw i64 %.sroa.6.0.extract.shift to i32
  %3 = getelementptr inbounds nuw i8, ptr %0, i64 4
  %4 = getelementptr inbounds nuw i8, ptr %0, i64 8
  %5 = getelementptr inbounds nuw i8, ptr %0, i64 12
  %6 = getelementptr inbounds nuw i8, ptr %0, i64 16
  %7 = getelementptr inbounds nuw i8, ptr %0, i64 20
  %8 = getelementptr inbounds nuw i8, ptr %0, i64 24
  %9 = getelementptr inbounds nuw i8, ptr %0, i64 28
  %10 = getelementptr inbounds nuw i8, ptr %0, i64 32
  %11 = getelementptr inbounds nuw i8, ptr %0, i64 36
  store i32 %.sroa.0.0.extract.trunc, ptr %0, align 4, !tbaa !23
  store i32 %.sroa.6.0.extract.trunc, ptr %3, align 4, !tbaa !23
  store i32 %.sroa.0.0.extract.trunc, ptr %4, align 4, !tbaa !24
  %12 = add nsw i32 %.sroa.6.0.extract.trunc, -1
  store i32 %12, ptr %5, align 4, !tbaa !27
  %13 = add nsw i32 %.sroa.0.0.extract.trunc, -1
  store i32 %13, ptr %8, align 4, !tbaa !28
  store i32 %.sroa.6.0.extract.trunc, ptr %9, align 4, !tbaa !29
  store i32 %.sroa.0.0.extract.trunc, ptr %10, align 4, !tbaa !30
  %14 = add nsw i32 %.sroa.6.0.extract.trunc, 1
  store i32 %14, ptr %11, align 4, !tbaa !31
  %15 = add nsw i32 %.sroa.0.0.extract.trunc, 1
  store i32 %15, ptr %6, align 4, !tbaa !32
  store i32 %.sroa.6.0.extract.trunc, ptr %7, align 4, !tbaa !33
  ret void
}